target datalayout = "e-m:e-p270:32:32-p271:32:32-p272:64:64-i64:64-i128:128-f80:128-n8:16:32:64-S128"
target triple = "x86_64-pc-linux-gnu"

%struct.ossl_dispatch_st = type { i32, ptr }

; Function Attrs: inlinehint nounwind uwtable
define internal ptr @OSSL_FUNC_keymgmt_free(ptr noundef %0) #3 {
  %2 = alloca ptr, align 8
  store ptr %0, ptr %2, align 8, !tbaa !9
  %3 = load ptr, ptr %2, align 8, !tbaa !9
  %4 = getelementptr inbounds nuw %struct.ossl_dispatch_st, ptr %3, i32 0, i32 1
  %5 = load ptr, ptr %4, align 8, !tbaa !29
  ret ptr %5
}

; Function Attrs: nounwind uwtable
define internal ptr @xor_prov_get_keymgmt_free(ptr noundef %0) #0 {
  %2 = alloca ptr, align 8
  %3 = alloca ptr, align 8
  store ptr %0, ptr %3, align 8, !tbaa !9
  br label %4

4:                                                ; preds = %18, %1
  %5 = load ptr, ptr %3, align 8, !tbaa !9
  %6 = getelementptr inbounds nuw %struct.ossl_dispatch_st, ptr %5, i32 0, i32 0
  %7 = load i32, ptr %6, align 8, !tbaa !21
  %8 = icmp ne i32 %7, 0
  br i1 %8, label %9, label %21

9:                                                ; preds = %4
  %10 = load ptr, ptr %3, align 8, !tbaa !9
  %11 = getelementptr inbounds nuw %struct.ossl_dispatch_st, ptr %10, i32 0, i32 0
  %12 = load i32, ptr %11, align 8, !tbaa !21
  %13 = icmp eq i32 %12, 10
  br i1 %13, label %14, label %17

14:                                               ; preds = %9
  %15 = load ptr, ptr %3, align 8, !tbaa !9
  %16 = call ptr @OSSL_FUNC_keymgmt_free(ptr noundef %15)
  store ptr %16, ptr %2, align 8
  br label %22

17:                                               ; preds = %9
  br label %18

18:                                               ; preds = %17
  %19 = load ptr, ptr %3, align 8, !tbaa !9
  %20 = getelementptr inbounds nuw %struct.ossl_dispatch_st, ptr %19, i32 1
  store ptr %20, ptr %3, align 8, !tbaa !9
  br label %4, !llvm.loop !83

21:                                               ; preds = %4
  store ptr null, ptr %2, align 8
  br label %22

22:                                               ; preds = %21, %14
  %23 = load ptr, ptr %2, align 8
  ret ptr %23
}

; Function Attrs: nounwind uwtable
define internal void @xor_prov_free_key(ptr noundef %0, ptr noundef %1) #0 {
  %3 = alloca ptr, align 8
  %4 = alloca ptr, align 8
  %5 = alloca ptr, align 8
  store ptr %0, ptr %3, align 8, !tbaa !9
  store ptr %1, ptr %4, align 8, !tbaa !13
  call void @llvm.lifetime.start.p0(i64 8, ptr %5) #8
  %6 = load ptr, ptr %3, align 8, !tbaa !9
  %7 = call ptr @xor_prov_get_keymgmt_free(ptr noundef %6)
  store ptr %7, ptr %5, align 8, !tbaa !13
  %8 = load ptr, ptr %5, align 8, !tbaa !13
  %9 = icmp ne ptr %8, null
  br i1 %9, label %10, label %13

10:                                               ; preds = %2
  %11 = load ptr, ptr %5, align 8, !tbaa !13
  %12 = load ptr, ptr %4, align 8, !tbaa !13
  call void %11(ptr noundef %12)
  br label %13

13:                                               ; preds = %10, %2
  call void @llvm.lifetime.end.p0(i64 8, ptr %5) #8
  ret void
}

; Function Attrs: nounwind uwtable
define internal void @xorhmacsig_to_EncryptedPrivateKeyInfo_pem_free_object(ptr noundef %0) #0 {
  %2 = alloca ptr, align 8
  store ptr %0, ptr %2, align 8, !tbaa !13
  %3 = load ptr, ptr %2, align 8, !tbaa !13
  call void @xor_prov_free_key(ptr noundef @xor_xorhmacsig_keymgmt_functions, ptr noundef %3)
  ret void
}